---
triple:          'arm64-apple-darwin'
binary-path:     '/Volumes/Umar/GoogleDrive/Kurser/C++/Cpp/Topics/01Basic/03VariablesandConstants/005OverflowExample/005OverflowExample'
relocations:
  - { offsetInCU: 0x2F4F, offset: 0x2F4F, size: 0x8, addend: 0x0, symName: __ZNSt3__124__put_character_sequenceB8ue170006IcNS_11char_traitsIcEEEERNS_13basic_ostreamIT_T0_EES7_PKS4_m, symObjAddr: 0x164, symBinAddr: 0x100003240, symSize: 0x1EC }
  - { offsetInCU: 0x48E6, offset: 0x48E6, size: 0x8, addend: 0x0, symName: __ZNSt3__1lsB8ue170006INS_11char_traitsIcEEEERNS_13basic_ostreamIcT_EES6_PKc, symObjAddr: 0x98, symBinAddr: 0x100003174, symSize: 0x48 }
  - { offsetInCU: 0x492C, offset: 0x492C, size: 0x8, addend: 0x0, symName: __ZNSt3__14endlB8ue170006IcNS_11char_traitsIcEEEERNS_13basic_ostreamIT_T0_EES7_, symObjAddr: 0x10C, symBinAddr: 0x1000031E8, symSize: 0x58 }
  - { offsetInCU: 0x496C, offset: 0x496C, size: 0x8, addend: 0x0, symName: __ZNSt3__116__pad_and_outputB8ue170006IcNS_11char_traitsIcEEEENS_19ostreambuf_iteratorIT_T0_EES6_PKS4_S8_S8_RNS_8ios_baseES4_, symObjAddr: 0x3A0, symBinAddr: 0x10000347C, symSize: 0x240 }
  - { offsetInCU: 0x4A3B, offset: 0x4A3B, size: 0x8, addend: 0x0, symName: __ZNSt3__112__to_addressB8ue170006IcEEPT_S2_, symObjAddr: 0x914, symBinAddr: 0x1000039F0, symSize: 0x14 }
  - { offsetInCU: 0x4AA3, offset: 0x4AA3, size: 0x8, addend: 0x0, symName: __ZNSt3__19use_facetB8ue170006INS_5ctypeIcEEEERKT_RKNS_6localeE, symObjAddr: 0xBCC, symBinAddr: 0x100003CA8, symSize: 0x2C }
  - { offsetInCU: 0x4F70, offset: 0x4F70, size: 0x8, addend: 0x0, symName: __ZNSt3__118__constexpr_strlenB8ue170006EPKc, symObjAddr: 0xC64, symBinAddr: 0x100003D40, symSize: 0x24 }
  - { offsetInCU: 0x7630, offset: 0x7630, size: 0x8, addend: 0x0, symName: _main, symObjAddr: 0x0, symBinAddr: 0x1000030DC, symSize: 0x98 }
  - { offsetInCU: 0x7674, offset: 0x7674, size: 0x8, addend: 0x0, symName: __ZNSt3__113basic_ostreamIcNS_11char_traitsIcEEElsB8ue170006EPFRS3_S4_E, symObjAddr: 0xE0, symBinAddr: 0x1000031BC, symSize: 0x2C }
  - { offsetInCU: 0x76A6, offset: 0x76A6, size: 0x8, addend: 0x0, symName: __ZNSt3__111char_traitsIcE6lengthB8ue170006EPKc, symObjAddr: 0x350, symBinAddr: 0x10000342C, symSize: 0x34 }
  - { offsetInCU: 0x76E6, offset: 0x76E6, size: 0x8, addend: 0x0, symName: __ZNKSt3__113basic_ostreamIcNS_11char_traitsIcEEE6sentrycvbB8ue170006Ev, symObjAddr: 0x384, symBinAddr: 0x100003460, symSize: 0x1C }
  - { offsetInCU: 0x770A, offset: 0x770A, size: 0x8, addend: 0x0, symName: __ZNSt3__119ostreambuf_iteratorIcNS_11char_traitsIcEEEC1B8ue170006ERNS_13basic_ostreamIcS2_EE, symObjAddr: 0x5E0, symBinAddr: 0x1000036BC, symSize: 0x34 }
  - { offsetInCU: 0x7740, offset: 0x7740, size: 0x8, addend: 0x0, symName: __ZNKSt3__18ios_base5flagsB8ue170006Ev, symObjAddr: 0x614, symBinAddr: 0x1000036F0, symSize: 0x18 }
  - { offsetInCU: 0x7766, offset: 0x7766, size: 0x8, addend: 0x0, symName: __ZNKSt3__19basic_iosIcNS_11char_traitsIcEEE4fillB8ue170006Ev, symObjAddr: 0x62C, symBinAddr: 0x100003708, symSize: 0x64 }
  - { offsetInCU: 0x778C, offset: 0x778C, size: 0x8, addend: 0x0, symName: __ZNKSt3__119ostreambuf_iteratorIcNS_11char_traitsIcEEE6failedB8ue170006Ev, symObjAddr: 0x690, symBinAddr: 0x10000376C, symSize: 0x24 }
  - { offsetInCU: 0x77B0, offset: 0x77B0, size: 0x8, addend: 0x0, symName: __ZNSt3__19basic_iosIcNS_11char_traitsIcEEE8setstateB8ue170006Ej, symObjAddr: 0x6B4, symBinAddr: 0x100003790, symSize: 0x2C }
  - { offsetInCU: 0x77E3, offset: 0x77E3, size: 0x8, addend: 0x0, symName: __ZNKSt3__18ios_base5widthB8ue170006Ev, symObjAddr: 0x6EC, symBinAddr: 0x1000037C8, symSize: 0x18 }
  - { offsetInCU: 0x7809, offset: 0x7809, size: 0x8, addend: 0x0, symName: __ZNSt3__115basic_streambufIcNS_11char_traitsIcEEE5sputnB8ue170006EPKcl, symObjAddr: 0x704, symBinAddr: 0x1000037E0, symSize: 0x3C }
  - { offsetInCU: 0x7849, offset: 0x7849, size: 0x8, addend: 0x0, symName: __ZNSt3__112basic_stringIcNS_11char_traitsIcEENS_9allocatorIcEEEC1B8ue170006Emc, symObjAddr: 0x740, symBinAddr: 0x10000381C, symSize: 0x3C }
  - { offsetInCU: 0x788F, offset: 0x788F, size: 0x8, addend: 0x0, symName: __ZNSt3__112basic_stringIcNS_11char_traitsIcEENS_9allocatorIcEEE4dataB8ue170006Ev, symObjAddr: 0x77C, symBinAddr: 0x100003858, symSize: 0x28 }
  - { offsetInCU: 0x78B3, offset: 0x78B3, size: 0x8, addend: 0x0, symName: __ZNSt3__18ios_base5widthB8ue170006El, symObjAddr: 0x7A4, symBinAddr: 0x100003880, symSize: 0x2C }
  - { offsetInCU: 0x78F7, offset: 0x78F7, size: 0x8, addend: 0x0, symName: __ZNSt3__112basic_stringIcNS_11char_traitsIcEENS_9allocatorIcEEEC2B8ue170006Emc, symObjAddr: 0x7D0, symBinAddr: 0x1000038AC, symSize: 0x4C }
  - { offsetInCU: 0x7942, offset: 0x7942, size: 0x8, addend: 0x0, symName: __ZNSt3__117__compressed_pairINS_12basic_stringIcNS_11char_traitsIcEENS_9allocatorIcEEE5__repES5_EC1B8ue170006INS_18__default_init_tagESA_EEOT_OT0_, symObjAddr: 0x81C, symBinAddr: 0x1000038F8, symSize: 0x3C }
  - { offsetInCU: 0x7998, offset: 0x7998, size: 0x8, addend: 0x0, symName: __ZNSt3__117__compressed_pairINS_12basic_stringIcNS_11char_traitsIcEENS_9allocatorIcEEE5__repES5_EC2B8ue170006INS_18__default_init_tagESA_EEOT_OT0_, symObjAddr: 0x858, symBinAddr: 0x100003934, symSize: 0x3C }
  - { offsetInCU: 0x79EE, offset: 0x79EE, size: 0x8, addend: 0x0, symName: __ZNSt3__122__compressed_pair_elemINS_12basic_stringIcNS_11char_traitsIcEENS_9allocatorIcEEE5__repELi0ELb0EEC2B8ue170006ENS_18__default_init_tagE, symObjAddr: 0x894, symBinAddr: 0x100003970, symSize: 0x14 }
  - { offsetInCU: 0x7A20, offset: 0x7A20, size: 0x8, addend: 0x0, symName: __ZNSt3__122__compressed_pair_elemINS_9allocatorIcEELi1ELb1EEC2B8ue170006ENS_18__default_init_tagE, symObjAddr: 0x8A8, symBinAddr: 0x100003984, symSize: 0x2C }
  - { offsetInCU: 0x7A52, offset: 0x7A52, size: 0x8, addend: 0x0, symName: __ZNSt3__19allocatorIcEC2B8ue170006Ev, symObjAddr: 0x8D4, symBinAddr: 0x1000039B0, symSize: 0x2C }
  - { offsetInCU: 0x7A7A, offset: 0x7A7A, size: 0x8, addend: 0x0, symName: __ZNSt3__116__non_trivial_ifILb1ENS_9allocatorIcEEEC2B8ue170006Ev, symObjAddr: 0x900, symBinAddr: 0x1000039DC, symSize: 0x14 }
  - { offsetInCU: 0x7AA2, offset: 0x7AA2, size: 0x8, addend: 0x0, symName: __ZNSt3__112basic_stringIcNS_11char_traitsIcEENS_9allocatorIcEEE13__get_pointerB8ue170006Ev, symObjAddr: 0x928, symBinAddr: 0x100003A04, symSize: 0x54 }
  - { offsetInCU: 0x7AC6, offset: 0x7AC6, size: 0x8, addend: 0x0, symName: __ZNKSt3__112basic_stringIcNS_11char_traitsIcEENS_9allocatorIcEEE9__is_longB8ue170006Ev, symObjAddr: 0x97C, symBinAddr: 0x100003A58, symSize: 0x38 }
  - { offsetInCU: 0x7AEA, offset: 0x7AEA, size: 0x8, addend: 0x0, symName: __ZNSt3__112basic_stringIcNS_11char_traitsIcEENS_9allocatorIcEEE18__get_long_pointerB8ue170006Ev, symObjAddr: 0x9B4, symBinAddr: 0x100003A90, symSize: 0x28 }
  - { offsetInCU: 0x7B0E, offset: 0x7B0E, size: 0x8, addend: 0x0, symName: __ZNSt3__112basic_stringIcNS_11char_traitsIcEENS_9allocatorIcEEE19__get_short_pointerB8ue170006Ev, symObjAddr: 0x9DC, symBinAddr: 0x100003AB8, symSize: 0x28 }
  - { offsetInCU: 0x7B32, offset: 0x7B32, size: 0x8, addend: 0x0, symName: __ZNKSt3__117__compressed_pairINS_12basic_stringIcNS_11char_traitsIcEENS_9allocatorIcEEE5__repES5_E5firstB8ue170006Ev, symObjAddr: 0xA04, symBinAddr: 0x100003AE0, symSize: 0x24 }
  - { offsetInCU: 0x7B56, offset: 0x7B56, size: 0x8, addend: 0x0, symName: __ZNKSt3__122__compressed_pair_elemINS_12basic_stringIcNS_11char_traitsIcEENS_9allocatorIcEEE5__repELi0ELb0EE5__getB8ue170006Ev, symObjAddr: 0xA28, symBinAddr: 0x100003B04, symSize: 0x14 }
  - { offsetInCU: 0x7B7A, offset: 0x7B7A, size: 0x8, addend: 0x0, symName: __ZNSt3__117__compressed_pairINS_12basic_stringIcNS_11char_traitsIcEENS_9allocatorIcEEE5__repES5_E5firstB8ue170006Ev, symObjAddr: 0xA3C, symBinAddr: 0x100003B18, symSize: 0x24 }
  - { offsetInCU: 0x7B9E, offset: 0x7B9E, size: 0x8, addend: 0x0, symName: __ZNSt3__122__compressed_pair_elemINS_12basic_stringIcNS_11char_traitsIcEENS_9allocatorIcEEE5__repELi0ELb0EE5__getB8ue170006Ev, symObjAddr: 0xA60, symBinAddr: 0x100003B3C, symSize: 0x14 }
  - { offsetInCU: 0x7BC2, offset: 0x7BC2, size: 0x8, addend: 0x0, symName: __ZNSt3__114pointer_traitsIPcE10pointer_toB8ue170006ERc, symObjAddr: 0xA74, symBinAddr: 0x100003B50, symSize: 0x14 }
  - { offsetInCU: 0x7BE4, offset: 0x7BE4, size: 0x8, addend: 0x0, symName: __ZNSt3__119ostreambuf_iteratorIcNS_11char_traitsIcEEEC2B8ue170006ERNS_13basic_ostreamIcS2_EE, symObjAddr: 0xA88, symBinAddr: 0x100003B64, symSize: 0x54 }
  - { offsetInCU: 0x7C1A, offset: 0x7C1A, size: 0x8, addend: 0x0, symName: __ZNKSt3__19basic_iosIcNS_11char_traitsIcEEE5rdbufB8ue170006Ev, symObjAddr: 0xADC, symBinAddr: 0x100003BB8, symSize: 0x24 }
  - { offsetInCU: 0x7C40, offset: 0x7C40, size: 0x8, addend: 0x0, symName: __ZNKSt3__18ios_base5rdbufB8ue170006Ev, symObjAddr: 0xB00, symBinAddr: 0x100003BDC, symSize: 0x18 }
  - { offsetInCU: 0x7C64, offset: 0x7C64, size: 0x8, addend: 0x0, symName: __ZNSt3__111char_traitsIcE11eq_int_typeB8ue170006Eii, symObjAddr: 0xB18, symBinAddr: 0x100003BF4, symSize: 0x28 }
  - { offsetInCU: 0x7C96, offset: 0x7C96, size: 0x8, addend: 0x0, symName: __ZNSt3__111char_traitsIcE3eofB8ue170006Ev, symObjAddr: 0xB40, symBinAddr: 0x100003C1C, symSize: 0x8 }
  - { offsetInCU: 0x7CA9, offset: 0x7CA9, size: 0x8, addend: 0x0, symName: __ZNKSt3__19basic_iosIcNS_11char_traitsIcEEE5widenB8ue170006Ec, symObjAddr: 0xB48, symBinAddr: 0x100003C24, symSize: 0x84 }
  - { offsetInCU: 0x7D15, offset: 0x7D15, size: 0x8, addend: 0x0, symName: __ZNKSt3__15ctypeIcE5widenB8ue170006Ec, symObjAddr: 0xBF8, symBinAddr: 0x100003CD4, symSize: 0x38 }
  - { offsetInCU: 0x7D48, offset: 0x7D48, size: 0x8, addend: 0x0, symName: __ZNSt3__18ios_base8setstateB8ue170006Ej, symObjAddr: 0xC30, symBinAddr: 0x100003D0C, symSize: 0x34 }
...
